target datalayout = "e-m:e-p270:32:32-p271:32:32-p272:64:64-i64:64-i128:128-f80:128-n8:16:32:64-S128"
target triple = "x86_64-pc-linux-gnu"

@.str.9 = private unnamed_addr constant [36 x i8] c"../openssl/test/sm2_internal_test.c\00", align 1
@.str.38 = private unnamed_addr constant [9 x i8] c"expected\00", align 1
@.str.39 = private unnamed_addr constant [30 x i8] c"BN_hex2bn(&priv, privkey_hex)\00", align 1
@.str.40 = private unnamed_addr constant [4 x i8] c"key\00", align 1
@.str.41 = private unnamed_addr constant [29 x i8] c"EC_KEY_set_group(key, group)\00", align 1
@.str.42 = private unnamed_addr constant [34 x i8] c"EC_KEY_set_private_key(key, priv)\00", align 1
@.str.43 = private unnamed_addr constant [3 x i8] c"pt\00", align 1
@.str.44 = private unnamed_addr constant [48 x i8] c"EC_POINT_mul(group, pt, priv, NULL, NULL, NULL)\00", align 1
@.str.45 = private unnamed_addr constant [31 x i8] c"EC_KEY_set_public_key(key, pt)\00", align 1
@.str.46 = private unnamed_addr constant [59 x i8] c"ossl_sm2_ciphertext_size(key, digest, msg_len, &ctext_len)\00", align 1
@.str.47 = private unnamed_addr constant [6 x i8] c"ctext\00", align 1
@.str.48 = private unnamed_addr constant [84 x i8] c"ossl_sm2_encrypt(key, digest, (const uint8_t *)message, msg_len, ctext, &ctext_len)\00", align 1
@.str.49 = private unnamed_addr constant [54 x i8] c"ossl_sm2_plaintext_size(ctext, ctext_len, &ptext_len)\00", align 1
@.str.50 = private unnamed_addr constant [10 x i8] c"ptext_len\00", align 1
@.str.51 = private unnamed_addr constant [8 x i8] c"msg_len\00", align 1
@.str.52 = private unnamed_addr constant [10 x i8] c"recovered\00", align 1
@.str.53 = private unnamed_addr constant [75 x i8] c"ossl_sm2_decrypt(key, digest, ctext, ctext_len, recovered, &recovered_len)\00", align 1
@.str.54 = private unnamed_addr constant [14 x i8] c"recovered_len\00", align 1
@.str.55 = private unnamed_addr constant [8 x i8] c"message\00", align 1

; Function Attrs: nounwind uwtable
define internal i32 @test_sm2_crypt(ptr noundef %0, ptr noundef %1, ptr noundef %2, ptr noundef %3, ptr noundef %4, ptr noundef %5) #0 {
  %7 = alloca ptr, align 8
  %8 = alloca ptr, align 8
  %9 = alloca ptr, align 8
  %10 = alloca ptr, align 8
  %11 = alloca ptr, align 8
  %12 = alloca ptr, align 8
  %13 = alloca i64, align 8
  %14 = alloca ptr, align 8
  %15 = alloca ptr, align 8
  %16 = alloca ptr, align 8
  %17 = alloca ptr, align 8
  %18 = alloca i64, align 8
  %19 = alloca i64, align 8
  %20 = alloca ptr, align 8
  %21 = alloca ptr, align 8
  %22 = alloca i64, align 8
  %23 = alloca i32, align 4
  store ptr %0, ptr %7, align 8, !tbaa !11
  store ptr %1, ptr %8, align 8, !tbaa !19
  store ptr %2, ptr %9, align 8, !tbaa !13
  store ptr %3, ptr %10, align 8, !tbaa !13
  store ptr %4, ptr %11, align 8, !tbaa !13
  store ptr %5, ptr %12, align 8, !tbaa !13
  call void @llvm.lifetime.start.p0(i64 8, ptr %13) #4
  %24 = load ptr, ptr %10, align 8, !tbaa !13
  %25 = call i64 @strlen(ptr noundef %24) #5
  store i64 %25, ptr %13, align 8, !tbaa !21
  call void @llvm.lifetime.start.p0(i64 8, ptr %14) #4
  store ptr null, ptr %14, align 8, !tbaa !15
  call void @llvm.lifetime.start.p0(i64 8, ptr %15) #4
  store ptr null, ptr %15, align 8, !tbaa !23
  call void @llvm.lifetime.start.p0(i64 8, ptr %16) #4
  store ptr null, ptr %16, align 8, !tbaa !17
  call void @llvm.lifetime.start.p0(i64 8, ptr %17) #4
  %26 = load ptr, ptr %12, align 8, !tbaa !13
  %27 = call ptr @OPENSSL_hexstr2buf(ptr noundef %26, ptr noundef null)
  store ptr %27, ptr %17, align 8, !tbaa !13
  call void @llvm.lifetime.start.p0(i64 8, ptr %18) #4
  store i64 0, ptr %18, align 8, !tbaa !21
  call void @llvm.lifetime.start.p0(i64 8, ptr %19) #4
  store i64 0, ptr %19, align 8, !tbaa !21
  call void @llvm.lifetime.start.p0(i64 8, ptr %20) #4
  store ptr null, ptr %20, align 8, !tbaa !13
  call void @llvm.lifetime.start.p0(i64 8, ptr %21) #4
  store ptr null, ptr %21, align 8, !tbaa !13
  call void @llvm.lifetime.start.p0(i64 8, ptr %22) #4
  %28 = load i64, ptr %13, align 8, !tbaa !21
  store i64 %28, ptr %22, align 8, !tbaa !21
  call void @llvm.lifetime.start.p0(i64 4, ptr %23) #4
  store i32 0, ptr %23, align 4, !tbaa !9
  %29 = load ptr, ptr %17, align 8, !tbaa !13
  %30 = call i32 @test_ptr(ptr noundef @.str.9, i32 noundef 152, ptr noundef @.str.38, ptr noundef %29)
  %31 = icmp ne i32 %30, 0
  br i1 %31, label %32, label %39

32:                                               ; preds = %6
  %33 = load ptr, ptr %9, align 8, !tbaa !13
  %34 = call i32 @BN_hex2bn(ptr noundef %14, ptr noundef %33)
  %35 = icmp ne i32 %34, 0
  %36 = zext i1 %35 to i32
  %37 = call i32 @test_true(ptr noundef @.str.9, i32 noundef 153, ptr noundef @.str.39, i32 noundef %36)
  %38 = icmp ne i32 %37, 0
  br i1 %38, label %40, label %39

39:                                               ; preds = %32, %6
  br label %173

40:                                               ; preds = %32
  %41 = call ptr @EC_KEY_new()
  store ptr %41, ptr %15, align 8, !tbaa !23
  %42 = load ptr, ptr %15, align 8, !tbaa !23
  %43 = call i32 @test_ptr(ptr noundef @.str.9, i32 noundef 157, ptr noundef @.str.40, ptr noundef %42)
  %44 = icmp ne i32 %43, 0
  br i1 %44, label %45, label %61

45:                                               ; preds = %40
  %46 = load ptr, ptr %15, align 8, !tbaa !23
  %47 = load ptr, ptr %7, align 8, !tbaa !11
  %48 = call i32 @EC_KEY_set_group(ptr noundef %46, ptr noundef %47)
  %49 = icmp ne i32 %48, 0
  %50 = zext i1 %49 to i32
  %51 = call i32 @test_true(ptr noundef @.str.9, i32 noundef 158, ptr noundef @.str.41, i32 noundef %50)
  %52 = icmp ne i32 %51, 0
  br i1 %52, label %53, label %61

53:                                               ; preds = %45
  %54 = load ptr, ptr %15, align 8, !tbaa !23
  %55 = load ptr, ptr %14, align 8, !tbaa !15
  %56 = call i32 @EC_KEY_set_private_key(ptr noundef %54, ptr noundef %55)
  %57 = icmp ne i32 %56, 0
  %58 = zext i1 %57 to i32
  %59 = call i32 @test_true(ptr noundef @.str.9, i32 noundef 159, ptr noundef @.str.42, i32 noundef %58)
  %60 = icmp ne i32 %59, 0
  br i1 %60, label %62, label %61

61:                                               ; preds = %53, %45, %40
  br label %173

62:                                               ; preds = %53
  %63 = load ptr, ptr %7, align 8, !tbaa !11
  %64 = call ptr @EC_POINT_new(ptr noundef %63)
  store ptr %64, ptr %16, align 8, !tbaa !17
  %65 = load ptr, ptr %16, align 8, !tbaa !17
  %66 = call i32 @test_ptr(ptr noundef @.str.9, i32 noundef 163, ptr noundef @.str.43, ptr noundef %65)
  %67 = icmp ne i32 %66, 0
  br i1 %67, label %68, label %94

68:                                               ; preds = %62
  %69 = load ptr, ptr %7, align 8, !tbaa !11
  %70 = load ptr, ptr %16, align 8, !tbaa !17
  %71 = load ptr, ptr %14, align 8, !tbaa !15
  %72 = call i32 @EC_POINT_mul(ptr noundef %69, ptr noundef %70, ptr noundef %71, ptr noundef null, ptr noundef null, ptr noundef null)
  %73 = icmp ne i32 %72, 0
  %74 = zext i1 %73 to i32
  %75 = call i32 @test_true(ptr noundef @.str.9, i32 noundef 164, ptr noundef @.str.44, i32 noundef %74)
  %76 = icmp ne i32 %75, 0
  br i1 %76, label %77, label %94

77:                                               ; preds = %68
  %78 = load ptr, ptr %15, align 8, !tbaa !23
  %79 = load ptr, ptr %16, align 8, !tbaa !17
  %80 = call i32 @EC_KEY_set_public_key(ptr noundef %78, ptr noundef %79)
  %81 = icmp ne i32 %80, 0
  %82 = zext i1 %81 to i32
  %83 = call i32 @test_true(ptr noundef @.str.9, i32 noundef 165, ptr noundef @.str.45, i32 noundef %82)
  %84 = icmp ne i32 %83, 0
  br i1 %84, label %85, label %94

85:                                               ; preds = %77
  %86 = load ptr, ptr %15, align 8, !tbaa !23
  %87 = load ptr, ptr %8, align 8, !tbaa !19
  %88 = load i64, ptr %13, align 8, !tbaa !21
  %89 = call i32 @ossl_sm2_ciphertext_size(ptr noundef %86, ptr noundef %87, i64 noundef %88, ptr noundef %18)
  %90 = icmp ne i32 %89, 0
  %91 = zext i1 %90 to i32
  %92 = call i32 @test_true(ptr noundef @.str.9, i32 noundef 167, ptr noundef @.str.46, i32 noundef %91)
  %93 = icmp ne i32 %92, 0
  br i1 %93, label %95, label %94

94:                                               ; preds = %85, %77, %68, %62
  br label %173

95:                                               ; preds = %85
  %96 = load i64, ptr %18, align 8, !tbaa !21
  %97 = call noalias ptr @CRYPTO_zalloc(i64 noundef %96, ptr noundef @.str.9, i32 noundef 170)
  store ptr %97, ptr %20, align 8, !tbaa !13
  %98 = load ptr, ptr %20, align 8, !tbaa !13
  %99 = call i32 @test_ptr(ptr noundef @.str.9, i32 noundef 171, ptr noundef @.str.47, ptr noundef %98)
  %100 = icmp ne i32 %99, 0
  br i1 %100, label %102, label %101

101:                                              ; preds = %95
  br label %173

102:                                              ; preds = %95
  %103 = load ptr, ptr %11, align 8, !tbaa !13
  %104 = call i32 @start_fake_rand(ptr noundef %103)
  %105 = load ptr, ptr %15, align 8, !tbaa !23
  %106 = load ptr, ptr %8, align 8, !tbaa !19
  %107 = load ptr, ptr %10, align 8, !tbaa !13
  %108 = load i64, ptr %13, align 8, !tbaa !21
  %109 = load ptr, ptr %20, align 8, !tbaa !13
  %110 = call i32 @ossl_sm2_encrypt(ptr noundef %105, ptr noundef %106, ptr noundef %107, i64 noundef %108, ptr noundef %109, ptr noundef %18)
  %111 = icmp ne i32 %110, 0
  %112 = zext i1 %111 to i32
  %113 = call i32 @test_true(ptr noundef @.str.9, i32 noundef 177, ptr noundef @.str.48, i32 noundef %112)
  %114 = icmp ne i32 %113, 0
  br i1 %114, label %116, label %115

115:                                              ; preds = %102
  call void @restore_rand()
  br label %173

116:                                              ; preds = %102
  call void @restore_rand()
  %117 = load ptr, ptr %20, align 8, !tbaa !13
  %118 = load i64, ptr %18, align 8, !tbaa !21
  %119 = load ptr, ptr %17, align 8, !tbaa !13
  %120 = load i64, ptr %18, align 8, !tbaa !21
  %121 = call i32 @test_mem_eq(ptr noundef @.str.9, i32 noundef 183, ptr noundef @.str.47, ptr noundef @.str.38, ptr noundef %117, i64 noundef %118, ptr noundef %119, i64 noundef %120)
  %122 = icmp ne i32 %121, 0
  br i1 %122, label %124, label %123

123:                                              ; preds = %116
  br label %173

124:                                              ; preds = %116
  %125 = load ptr, ptr %20, align 8, !tbaa !13
  %126 = load i64, ptr %18, align 8, !tbaa !21
  %127 = call i32 @ossl_sm2_plaintext_size(ptr noundef %125, i64 noundef %126, ptr noundef %19)
  %128 = icmp ne i32 %127, 0
  %129 = zext i1 %128 to i32
  %130 = call i32 @test_true(ptr noundef @.str.9, i32 noundef 186, ptr noundef @.str.49, i32 noundef %129)
  %131 = icmp ne i32 %130, 0
  br i1 %131, label %132, label %139

132:                                              ; preds = %124
  %133 = load i64, ptr %19, align 8, !tbaa !21
  %134 = trunc i64 %133 to i32
  %135 = load i64, ptr %13, align 8, !tbaa !21
  %136 = trunc i64 %135 to i32
  %137 = call i32 @test_int_eq(ptr noundef @.str.9, i32 noundef 187, ptr noundef @.str.50, ptr noundef @.str.51, i32 noundef %134, i32 noundef %136)
  %138 = icmp ne i32 %137, 0
  br i1 %138, label %140, label %139

139:                                              ; preds = %132, %124
  br label %173

140:                                              ; preds = %132
  %141 = load i64, ptr %19, align 8, !tbaa !21
  %142 = call noalias ptr @CRYPTO_zalloc(i64 noundef %141, ptr noundef @.str.9, i32 noundef 190)
  store ptr %142, ptr %21, align 8, !tbaa !13
  %143 = load ptr, ptr %21, align 8, !tbaa !13
  %144 = call i32 @test_ptr(ptr noundef @.str.9, i32 noundef 191, ptr noundef @.str.52, ptr noundef %143)
  %145 = icmp ne i32 %144, 0
  br i1 %145, label %146, label %171

146:                                              ; preds = %140
  %147 = load ptr, ptr %15, align 8, !tbaa !23
  %148 = load ptr, ptr %8, align 8, !tbaa !19
  %149 = load ptr, ptr %20, align 8, !tbaa !13
  %150 = load i64, ptr %18, align 8, !tbaa !21
  %151 = load ptr, ptr %21, align 8, !tbaa !13
  %152 = call i32 @ossl_sm2_decrypt(ptr noundef %147, ptr noundef %148, ptr noundef %149, i64 noundef %150, ptr noundef %151, ptr noundef %22)
  %153 = icmp ne i32 %152, 0
  %154 = zext i1 %153 to i32
  %155 = call i32 @test_true(ptr noundef @.str.9, i32 noundef 193, ptr noundef @.str.53, i32 noundef %154)
  %156 = icmp ne i32 %155, 0
  br i1 %156, label %157, label %171

157:                                              ; preds = %146
  %158 = load i64, ptr %22, align 8, !tbaa !21
  %159 = trunc i64 %158 to i32
  %160 = load i64, ptr %13, align 8, !tbaa !21
  %161 = trunc i64 %160 to i32
  %162 = call i32 @test_int_eq(ptr noundef @.str.9, i32 noundef 194, ptr noundef @.str.54, ptr noundef @.str.51, i32 noundef %159, i32 noundef %161)
  %163 = icmp ne i32 %162, 0
  br i1 %163, label %164, label %171

164:                                              ; preds = %157
  %165 = load ptr, ptr %21, align 8, !tbaa !13
  %166 = load i64, ptr %22, align 8, !tbaa !21
  %167 = load ptr, ptr %10, align 8, !tbaa !13
  %168 = load i64, ptr %13, align 8, !tbaa !21
  %169 = call i32 @test_mem_eq(ptr noundef @.str.9, i32 noundef 195, ptr noundef @.str.52, ptr noundef @.str.55, ptr noundef %165, i64 noundef %166, ptr noundef %167, i64 noundef %168)
  %170 = icmp ne i32 %169, 0
  br i1 %170, label %172, label %171

171:                                              ; preds = %164, %157, %146, %140
  br label %173

172:                                              ; preds = %164
  store i32 1, ptr %23, align 4, !tbaa !9
  br label %173

173:                                              ; preds = %172, %171, %139, %123, %115, %101, %94, %61, %39
  %174 = load ptr, ptr %14, align 8, !tbaa !15
  call void @BN_free(ptr noundef %174)
  %175 = load ptr, ptr %16, align 8, !tbaa !17
  call void @EC_POINT_free(ptr noundef %175)
  %176 = load ptr, ptr %20, align 8, !tbaa !13
  call void @CRYPTO_free(ptr noundef %176, ptr noundef @.str.9, i32 noundef 202)
  %177 = load ptr, ptr %21, align 8, !tbaa !13
  call void @CRYPTO_free(ptr noundef %177, ptr noundef @.str.9, i32 noundef 203)
  %178 = load ptr, ptr %17, align 8, !tbaa !13
  call void @CRYPTO_free(ptr noundef %178, ptr noundef @.str.9, i32 noundef 204)
  %179 = load ptr, ptr %15, align 8, !tbaa !23
  call void @EC_KEY_free(ptr noundef %179)
  %180 = load i32, ptr %23, align 4, !tbaa !9
  call void @llvm.lifetime.end.p0(i64 4, ptr %23) #4
  call void @llvm.lifetime.end.p0(i64 8, ptr %22) #4
  call void @llvm.lifetime.end.p0(i64 8, ptr %21) #4
  call void @llvm.lifetime.end.p0(i64 8, ptr %20) #4
  call void @llvm.lifetime.end.p0(i64 8, ptr %19) #4
  call void @llvm.lifetime.end.p0(i64 8, ptr %18) #4
  call void @llvm.lifetime.end.p0(i64 8, ptr %17) #4
  call void @llvm.lifetime.end.p0(i64 8, ptr %16) #4
  call void @llvm.lifetime.end.p0(i64 8, ptr %15) #4
  call void @llvm.lifetime.end.p0(i64 8, ptr %14) #4
  call void @llvm.lifetime.end.p0(i64 8, ptr %13) #4
  ret i32 %180
}