; Function Attrs: nounwind uwtable
define internal fastcc range(i32 0, 2) i32 @test_sm2_crypt(ptr noundef %0, ptr noundef %1, ptr noundef %2, ptr noundef %3, ptr noundef %4) unnamed_addr #0 {
  %6 = alloca ptr, align 8
  %7 = alloca i64, align 8
  %8 = alloca i64, align 8
  %9 = alloca i64, align 8
  call void @llvm.lifetime.start.p0(i64 8, ptr nonnull %6) #4
  store ptr null, ptr %6, align 8, !tbaa !9
  %10 = tail call ptr @OPENSSL_hexstr2buf(ptr noundef %4, ptr noundef null) #4
  call void @llvm.lifetime.start.p0(i64 8, ptr nonnull %7) #4
  store i64 0, ptr %7, align 8, !tbaa !11
  call void @llvm.lifetime.start.p0(i64 8, ptr nonnull %8) #4
  store i64 0, ptr %8, align 8, !tbaa !11
  call void @llvm.lifetime.start.p0(i64 8, ptr nonnull %9) #4
  store i64 19, ptr %9, align 8, !tbaa !11
  %11 = tail call i32 @test_ptr(ptr noundef nonnull @.str.9, i32 noundef 152, ptr noundef nonnull @.str.38, ptr noundef %10) #4
  %.not = icmp eq i32 %11, 0
  br i1 %.not, label %89, label %12

12:                                               ; preds = %5
  %13 = call i32 @BN_hex2bn(ptr noundef nonnull %6, ptr noundef %2) #4
  %14 = icmp ne i32 %13, 0
  %15 = zext i1 %14 to i32
  %16 = call i32 @test_true(ptr noundef nonnull @.str.9, i32 noundef 153, ptr noundef nonnull @.str.39, i32 noundef %15) #4
  %.not47 = icmp eq i32 %16, 0
  br i1 %.not47, label %89, label %17

17:                                               ; preds = %12
  %18 = call ptr @EC_KEY_new() #4
  %19 = call i32 @test_ptr(ptr noundef nonnull @.str.9, i32 noundef 157, ptr noundef nonnull @.str.40, ptr noundef %18) #4
  %.not48 = icmp eq i32 %19, 0
  br i1 %.not48, label %89, label %20

20:                                               ; preds = %17
  %21 = call i32 @EC_KEY_set_group(ptr noundef %18, ptr noundef %0) #4
  %22 = icmp ne i32 %21, 0
  %23 = zext i1 %22 to i32
  %24 = call i32 @test_true(ptr noundef nonnull @.str.9, i32 noundef 158, ptr noundef nonnull @.str.41, i32 noundef %23) #4
  %.not49 = icmp eq i32 %24, 0
  br i1 %.not49, label %89, label %25

25:                                               ; preds = %20
  %26 = load ptr, ptr %6, align 8, !tbaa !9
  %27 = call i32 @EC_KEY_set_private_key(ptr noundef %18, ptr noundef %26) #4
  %28 = icmp ne i32 %27, 0
  %29 = zext i1 %28 to i32
  %30 = call i32 @test_true(ptr noundef nonnull @.str.9, i32 noundef 159, ptr noundef nonnull @.str.42, i32 noundef %29) #4
  %.not50 = icmp eq i32 %30, 0
  br i1 %.not50, label %89, label %31

31:                                               ; preds = %25
  %32 = call ptr @EC_POINT_new(ptr noundef %0) #4
  %33 = call i32 @test_ptr(ptr noundef nonnull @.str.9, i32 noundef 163, ptr noundef nonnull @.str.43, ptr noundef %32) #4
  %.not51 = icmp eq i32 %33, 0
  br i1 %.not51, label %89, label %34

34:                                               ; preds = %31
  %35 = load ptr, ptr %6, align 8, !tbaa !9
  %36 = call i32 @EC_POINT_mul(ptr noundef %0, ptr noundef %32, ptr noundef %35, ptr noundef null, ptr noundef null, ptr noundef null) #4
  %37 = icmp ne i32 %36, 0
  %38 = zext i1 %37 to i32
  %39 = call i32 @test_true(ptr noundef nonnull @.str.9, i32 noundef 164, ptr noundef nonnull @.str.44, i32 noundef %38) #4
  %.not52 = icmp eq i32 %39, 0
  br i1 %.not52, label %89, label %40

40:                                               ; preds = %34
  %41 = call i32 @EC_KEY_set_public_key(ptr noundef %18, ptr noundef %32) #4
  %42 = icmp ne i32 %41, 0
  %43 = zext i1 %42 to i32
  %44 = call i32 @test_true(ptr noundef nonnull @.str.9, i32 noundef 165, ptr noundef nonnull @.str.45, i32 noundef %43) #4
  %.not53 = icmp eq i32 %44, 0
  br i1 %.not53, label %89, label %45

45:                                               ; preds = %40
  %46 = call i32 @ossl_sm2_ciphertext_size(ptr noundef %18, ptr noundef %1, i64 noundef 19, ptr noundef nonnull %7) #4
  %47 = icmp ne i32 %46, 0
  %48 = zext i1 %47 to i32
  %49 = call i32 @test_true(ptr noundef nonnull @.str.9, i32 noundef 167, ptr noundef nonnull @.str.46, i32 noundef %48) #4
  %.not54 = icmp eq i32 %49, 0
  br i1 %.not54, label %89, label %50

50:                                               ; preds = %45
  %51 = load i64, ptr %7, align 8, !tbaa !11
  %52 = call noalias ptr @CRYPTO_zalloc(i64 noundef %51, ptr noundef nonnull @.str.9, i32 noundef 170) #4
  %53 = call i32 @test_ptr(ptr noundef nonnull @.str.9, i32 noundef 171, ptr noundef nonnull @.str.47, ptr noundef %52) #4
  %.not55 = icmp eq i32 %53, 0
  br i1 %.not55, label %89, label %54

54:                                               ; preds = %50
  call fastcc void @start_fake_rand(ptr noundef %3)
  %55 = call i32 @ossl_sm2_encrypt(ptr noundef %18, ptr noundef %1, ptr noundef nonnull @.str.12, i64 noundef 19, ptr noundef %52, ptr noundef nonnull %7) #4
  %56 = icmp ne i32 %55, 0
  %57 = zext i1 %56 to i32
  %58 = call i32 @test_true(ptr noundef nonnull @.str.9, i32 noundef 177, ptr noundef nonnull @.str.48, i32 noundef %57) #4
  %.not56 = icmp eq i32 %58, 0
  call fastcc void @restore_rand()
  br i1 %.not56, label %89, label %59

59:                                               ; preds = %54
  %60 = load i64, ptr %7, align 8, !tbaa !11
  %61 = call i32 @test_mem_eq(ptr noundef nonnull @.str.9, i32 noundef 183, ptr noundef nonnull @.str.47, ptr noundef nonnull @.str.38, ptr noundef %52, i64 noundef %60, ptr noundef %10, i64 noundef %60) #4
  %.not57 = icmp eq i32 %61, 0
  br i1 %.not57, label %89, label %62

62:                                               ; preds = %59
  %63 = load i64, ptr %7, align 8, !tbaa !11
  %64 = call i32 @ossl_sm2_plaintext_size(ptr noundef %52, i64 noundef %63, ptr noundef nonnull %8) #4
  %65 = icmp ne i32 %64, 0
  %66 = zext i1 %65 to i32
  %67 = call i32 @test_true(ptr noundef nonnull @.str.9, i32 noundef 186, ptr noundef nonnull @.str.49, i32 noundef %66) #4
  %.not58 = icmp eq i32 %67, 0
  br i1 %.not58, label %89, label %68

68:                                               ; preds = %62
  %69 = load i64, ptr %8, align 8, !tbaa !11
  %70 = trunc i64 %69 to i32
  %71 = call i32 @test_int_eq(ptr noundef nonnull @.str.9, i32 noundef 187, ptr noundef nonnull @.str.50, ptr noundef nonnull @.str.51, i32 noundef %70, i32 noundef 19) #4
  %.not59 = icmp eq i32 %71, 0
  br i1 %.not59, label %89, label %72

72:                                               ; preds = %68
  %73 = load i64, ptr %8, align 8, !tbaa !11
  %74 = call noalias ptr @CRYPTO_zalloc(i64 noundef %73, ptr noundef nonnull @.str.9, i32 noundef 190) #4
  %75 = call i32 @test_ptr(ptr noundef nonnull @.str.9, i32 noundef 191, ptr noundef nonnull @.str.52, ptr noundef %74) #4
  %.not60 = icmp eq i32 %75, 0
  br i1 %.not60, label %89, label %76

76:                                               ; preds = %72
  %77 = load i64, ptr %7, align 8, !tbaa !11
  %78 = call i32 @ossl_sm2_decrypt(ptr noundef %18, ptr noundef %1, ptr noundef %52, i64 noundef %77, ptr noundef %74, ptr noundef nonnull %9) #4
  %79 = icmp ne i32 %78, 0
  %80 = zext i1 %79 to i32
  %81 = call i32 @test_true(ptr noundef nonnull @.str.9, i32 noundef 193, ptr noundef nonnull @.str.53, i32 noundef %80) #4
  %.not61 = icmp eq i32 %81, 0
  br i1 %.not61, label %89, label %82

82:                                               ; preds = %76
  %83 = load i64, ptr %9, align 8, !tbaa !11
  %84 = trunc i64 %83 to i32
  %85 = call i32 @test_int_eq(ptr noundef nonnull @.str.9, i32 noundef 194, ptr noundef nonnull @.str.54, ptr noundef nonnull @.str.51, i32 noundef %84, i32 noundef 19) #4
  %.not62 = icmp eq i32 %85, 0
  br i1 %.not62, label %89, label %86

86:                                               ; preds = %82
  %87 = load i64, ptr %9, align 8, !tbaa !11
  %88 = call i32 @test_mem_eq(ptr noundef nonnull @.str.9, i32 noundef 195, ptr noundef nonnull @.str.52, ptr noundef nonnull @.str.55, ptr noundef %74, i64 noundef %87, ptr noundef nonnull @.str.12, i64 noundef 19) #4
  %.not63 = icmp ne i32 %88, 0
  %spec.select = zext i1 %.not63 to i32
  br label %89

89:                                               ; preds = %54, %86, %72, %76, %82, %62, %68, %59, %50, %31, %34, %40, %45, %17, %20, %25, %5, %12
  %.046 = phi ptr [ %32, %82 ], [ %32, %76 ], [ %32, %72 ], [ %32, %68 ], [ %32, %62 ], [ %32, %59 ], [ %32, %50 ], [ %32, %45 ], [ %32, %40 ], [ %32, %34 ], [ %32, %31 ], [ null, %25 ], [ null, %20 ], [ null, %17 ], [ null, %12 ], [ null, %5 ], [ %32, %86 ], [ %32, %54 ]
  %.045 = phi ptr [ %18, %82 ], [ %18, %76 ], [ %18, %72 ], [ %18, %68 ], [ %18, %62 ], [ %18, %59 ], [ %18, %50 ], [ %18, %45 ], [ %18, %40 ], [ %18, %34 ], [ %18, %31 ], [ %18, %25 ], [ %18, %20 ], [ %18, %17 ], [ null, %12 ], [ null, %5 ], [ %18, %86 ], [ %18, %54 ]
  %.044 = phi ptr [ %52, %82 ], [ %52, %76 ], [ %52, %72 ], [ %52, %68 ], [ %52, %62 ], [ %52, %59 ], [ %52, %50 ], [ null, %45 ], [ null, %40 ], [ null, %34 ], [ null, %31 ], [ null, %25 ], [ null, %20 ], [ null, %17 ], [ null, %12 ], [ null, %5 ], [ %52, %86 ], [ %52, %54 ]
  %.043 = phi ptr [ %74, %82 ], [ %74, %76 ], [ %74, %72 ], [ null, %68 ], [ null, %62 ], [ null, %59 ], [ null, %50 ], [ null, %45 ], [ null, %40 ], [ null, %34 ], [ null, %31 ], [ null, %25 ], [ null, %20 ], [ null, %17 ], [ null, %12 ], [ null, %5 ], [ %74, %86 ], [ null, %54 ]
  %.0 = phi i32 [ 0, %82 ], [ 0, %76 ], [ 0, %72 ], [ 0, %68 ], [ 0, %62 ], [ 0, %59 ], [ 0, %50 ], [ 0, %45 ], [ 0, %40 ], [ 0, %34 ], [ 0, %31 ], [ 0, %25 ], [ 0, %20 ], [ 0, %17 ], [ 0, %12 ], [ 0, %5 ], [ %spec.select, %86 ], [ 0, %54 ]
  %90 = load ptr, ptr %6, align 8, !tbaa !9
  call void @BN_free(ptr noundef %90) #4
  call void @EC_POINT_free(ptr noundef %.046) #4
  call void @CRYPTO_free(ptr noundef %.044, ptr noundef nonnull @.str.9, i32 noundef 202) #4
  call void @CRYPTO_free(ptr noundef %.043, ptr noundef nonnull @.str.9, i32 noundef 203) #4
  call void @CRYPTO_free(ptr noundef %10, ptr noundef nonnull @.str.9, i32 noundef 204) #4
  call void @EC_KEY_free(ptr noundef %.045) #4
  call void @llvm.lifetime.end.p0(i64 8, ptr nonnull %9) #4
  call void @llvm.lifetime.end.p0(i64 8, ptr nonnull %8) #4
  call void @llvm.lifetime.end.p0(i64 8, ptr nonnull %7) #4
  call void @llvm.lifetime.end.p0(i64 8, ptr nonnull %6) #4
  ret i32 %.0
}